; Function Attrs: nounwind uwtable
define dso_local i32 @Curl_once_resolved(ptr noundef %0, ptr noundef %1) local_unnamed_addr #0 {
  %3 = getelementptr inbounds nuw i8, ptr %0, i64 32
  %4 = load ptr, ptr %3, align 8
  %5 = getelementptr inbounds nuw i8, ptr %0, i64 3560
  %6 = load ptr, ptr %5, align 8
  %.not = icmp eq ptr %6, null
  br i1 %.not, label %9, label %7

7:                                                ; preds = %2
  %8 = getelementptr inbounds nuw i8, ptr %4, i64 48
  store ptr %6, ptr %8, align 8
  store ptr null, ptr %5, align 8
  br label %9

9:                                                ; preds = %7, %2
  %10 = tail call i32 @Curl_setup_conn(ptr noundef nonnull %0, ptr noundef %1) #12
  %.not13 = icmp eq i32 %10, 0
  br i1 %.not13, label %12, label %11

11:                                               ; preds = %9
  tail call void @Curl_detach_connection(ptr noundef nonnull %0) #12
  tail call void @Curl_conncache_remove_conn(ptr noundef nonnull %0, ptr noundef %4, i1 noundef zeroext true) #12
  tail call void @Curl_disconnect(ptr noundef nonnull %0, ptr noundef %4, i1 noundef zeroext true) #12
  br label %12

12:                                               ; preds = %11, %9
  ret i32 %10
}